; Function Attrs: nounwind uwtable
define internal fastcc ptr @_init_l_Lean_Elab_Tactic_Conv_evalDSimp___regBuiltin_Lean_Elab_Tactic_Conv_evalDSimp__1___closed__2() unnamed_addr #0 {
  %1 = load ptr, ptr @l_Lean_Elab_Tactic_Conv_evalSimp___regBuiltin_Lean_Elab_Tactic_Conv_evalSimp__1___closed__1, align 8, !tbaa !4
  %2 = load ptr, ptr @l_Lean_Elab_Tactic_Conv_evalSimp___regBuiltin_Lean_Elab_Tactic_Conv_evalSimp__1___closed__2, align 8, !tbaa !4
  %3 = load ptr, ptr @l_Lean_Elab_Tactic_Conv_evalSimp___regBuiltin_Lean_Elab_Tactic_Conv_evalSimp__1___closed__3, align 8, !tbaa !4
  %4 = load ptr, ptr @l_Lean_Elab_Tactic_Conv_evalSimp___regBuiltin_Lean_Elab_Tactic_Conv_evalSimp__1___closed__4, align 8, !tbaa !4
  %5 = load ptr, ptr @l_Lean_Elab_Tactic_Conv_evalDSimp___regBuiltin_Lean_Elab_Tactic_Conv_evalDSimp__1___closed__1, align 8, !tbaa !4
  %6 = tail call ptr @l_Lean_Name_mkStr5(ptr noundef %1, ptr noundef %2, ptr noundef %3, ptr noundef %4, ptr noundef %5) #5
  ret ptr %6
}